target datalayout = "e-m:e-p270:32:32-p271:32:32-p272:64:64-i64:64-i128:128-f80:128-n8:16:32:64-S128"
target triple = "x86_64-pc-linux-gnu"

; Function Attrs: inlinehint nounwind sspstrong willreturn memory(none) uwtable
define internal zeroext i1 @RB_NIL_P(i64 noundef %0) #12 {
  %2 = alloca i64, align 8
  store i64 %0, ptr %2, align 8, !tbaa !7
  %3 = load i64, ptr %2, align 8, !tbaa !7
  %4 = icmp eq i64 %3, 4
  ret i1 %4
}

; Function Attrs: inlinehint nounwind sspstrong uwtable
define internal i32 @rb_check_arity(i32 noundef %0, i32 noundef %1, i32 noundef %2) #2 {
  %4 = alloca i32, align 4
  %5 = alloca i32, align 4
  %6 = alloca i32, align 4
  store i32 %0, ptr %4, align 4, !tbaa !21
  store i32 %1, ptr %5, align 4, !tbaa !21
  store i32 %2, ptr %6, align 4, !tbaa !21
  %7 = load i32, ptr %4, align 4, !tbaa !21
  %8 = load i32, ptr %5, align 4, !tbaa !21
  %9 = icmp slt i32 %7, %8
  br i1 %9, label %17, label %10

10:                                               ; preds = %3
  %11 = load i32, ptr %6, align 4, !tbaa !21
  %12 = icmp ne i32 %11, -1
  br i1 %12, label %13, label %21

13:                                               ; preds = %10
  %14 = load i32, ptr %4, align 4, !tbaa !21
  %15 = load i32, ptr %6, align 4, !tbaa !21
  %16 = icmp sgt i32 %14, %15
  br i1 %16, label %17, label %21

17:                                               ; preds = %13, %3
  %18 = load i32, ptr %4, align 4, !tbaa !21
  %19 = load i32, ptr %5, align 4, !tbaa !21
  %20 = load i32, ptr %6, align 4, !tbaa !21
  call void @rb_error_arity(i32 noundef %18, i32 noundef %19, i32 noundef %20) #30
  unreachable

21:                                               ; preds = %13, %10
  %22 = load i32, ptr %4, align 4, !tbaa !21
  ret i32 %22
}

; Function Attrs: nounwind sspstrong uwtable
define internal i64 @dir_s_home(i32 noundef %0, ptr noundef %1, i64 noundef %2) #0 {
  %4 = alloca i64, align 8
  %5 = alloca i32, align 4
  %6 = alloca ptr, align 8
  %7 = alloca i64, align 8
  %8 = alloca i64, align 8
  %9 = alloca ptr, align 8
  %10 = alloca i32, align 4
  store i32 %0, ptr %5, align 4, !tbaa !21
  store ptr %1, ptr %6, align 8, !tbaa !48
  store i64 %2, ptr %7, align 8, !tbaa !7
  call void @llvm.lifetime.start.p0(i64 8, ptr %8) #26
  call void @llvm.lifetime.start.p0(i64 8, ptr %9) #26
  store ptr null, ptr %9, align 8, !tbaa !11
  %11 = load i32, ptr %5, align 4, !tbaa !21
  %12 = call i32 @rb_check_arity(i32 noundef %11, i32 noundef 0, i32 noundef 1)
  %13 = load i32, ptr %5, align 4, !tbaa !21
  %14 = icmp sgt i32 %13, 0
  br i1 %14, label %15, label %19

15:                                               ; preds = %3
  %16 = load ptr, ptr %6, align 8, !tbaa !48
  %17 = getelementptr i64, ptr %16, i64 0
  %18 = load i64, ptr %17, align 8, !tbaa !7
  br label %20

19:                                               ; preds = %3
  br label %20

20:                                               ; preds = %19, %15
  %21 = phi i64 [ %18, %15 ], [ 4, %19 ]
  store i64 %21, ptr %8, align 8, !tbaa !7
  %22 = load i64, ptr %8, align 8, !tbaa !7
  %23 = call zeroext i1 @RB_NIL_P(i64 noundef %22) #31
  br i1 %23, label %36, label %24

24:                                               ; preds = %20
  %25 = call i64 @rb_string_value(ptr noundef %8)
  %26 = load i64, ptr %8, align 8, !tbaa !7
  call void @rb_must_asciicompat(i64 noundef %26)
  %27 = call ptr @rb_string_value_cstr(ptr noundef %8)
  store ptr %27, ptr %9, align 8, !tbaa !11
  %28 = load ptr, ptr %9, align 8, !tbaa !11
  %29 = load i8, ptr %28, align 1, !tbaa !26
  %30 = icmp ne i8 %29, 0
  br i1 %30, label %31, label %35

31:                                               ; preds = %24
  %32 = load i64, ptr %8, align 8, !tbaa !7
  %33 = call i64 @rb_str_new_static(ptr noundef null, i64 noundef 0)
  %34 = call i64 @rb_home_dir_of(i64 noundef %32, i64 noundef %33)
  store i64 %34, ptr %4, align 8
  store i32 1, ptr %10, align 4
  br label %39

35:                                               ; preds = %24
  br label %36

36:                                               ; preds = %35, %20
  %37 = call i64 @rb_str_new_static(ptr noundef null, i64 noundef 0)
  %38 = call i64 @rb_default_home_dir(i64 noundef %37)
  store i64 %38, ptr %4, align 8
  store i32 1, ptr %10, align 4
  br label %39

39:                                               ; preds = %36, %31
  call void @llvm.lifetime.end.p0(i64 8, ptr %9) #26
  call void @llvm.lifetime.end.p0(i64 8, ptr %8) #26
  %40 = load i64, ptr %4, align 8
  ret i64 %40
}