; Function Attrs: nounwind sspstrong uwtable
define internal i64 @dir_s_home(i32 noundef %0, ptr noundef readonly captures(none) %1, i64 %2) #0 {
  %4 = alloca i64, align 8
  call void @llvm.lifetime.start.p0(i64 8, ptr nonnull %4) #22
  %or.cond.i = icmp ugt i32 %0, 1
  br i1 %or.cond.i, label %5, label %rb_check_arity.exit

5:                                                ; preds = %3
  tail call void @rb_error_arity(i32 noundef %0, i32 noundef 0, i32 noundef 1) #26
  unreachable

rb_check_arity.exit:                              ; preds = %3
  %6 = icmp eq i32 %0, 1
  br i1 %6, label %7, label %.thread

.thread:                                          ; preds = %rb_check_arity.exit
  store i64 4, ptr %4, align 8, !tbaa !7
  br label %19

7:                                                ; preds = %rb_check_arity.exit
  %8 = load i64, ptr %1, align 8, !tbaa !7
  store i64 %8, ptr %4, align 8, !tbaa !7
  %9 = icmp eq i64 %8, 4
  br i1 %9, label %19, label %10

10:                                               ; preds = %7
  %11 = call i64 @rb_string_value(ptr noundef nonnull %4) #22
  %12 = load i64, ptr %4, align 8, !tbaa !7
  call void @rb_must_asciicompat(i64 noundef %12) #22
  %13 = call ptr @rb_string_value_cstr(ptr noundef nonnull %4) #22
  %14 = load i8, ptr %13, align 1, !tbaa !19
  %.not = icmp eq i8 %14, 0
  br i1 %.not, label %19, label %15

15:                                               ; preds = %10
  %16 = load i64, ptr %4, align 8, !tbaa !7
  %17 = call i64 @rb_str_new_static(ptr noundef null, i64 noundef 0) #22
  %18 = call i64 @rb_home_dir_of(i64 noundef %16, i64 noundef %17) #22
  br label %22

19:                                               ; preds = %.thread, %10, %7
  %20 = call i64 @rb_str_new_static(ptr noundef null, i64 noundef 0) #22
  %21 = call i64 @rb_default_home_dir(i64 noundef %20) #22
  br label %22

22:                                               ; preds = %19, %15
  %.0 = phi i64 [ %21, %19 ], [ %18, %15 ]
  call void @llvm.lifetime.end.p0(i64 8, ptr nonnull %4) #22
  ret i64 %.0
}